; Function Attrs: mustprogress uwtable
define void @_ZN7Imf_3_218DeepTiledInputFile23compatibilityInitializeERNS_7IStreamE(ptr nocapture noundef nonnull readonly align 8 dereferenceable(16) %this, ptr noundef nonnull align 8 dereferenceable(40) %is) local_unnamed_addr #3 align 2 personality ptr @__gxx_personality_v0 {
entry:
  %vtable = load ptr, ptr %is, align 8
  %vfn = getelementptr inbounds i8, ptr %vtable, i64 48
  %0 = load ptr, ptr %vfn, align 8
  tail call void %0(ptr noundef nonnull align 8 dereferenceable(40) %is, i64 noundef 0)
  %call = tail call noalias noundef nonnull dereferenceable(16) ptr @_Znwm(i64 noundef 16) #21
  %_data = getelementptr inbounds i8, ptr %this, i64 8
  %1 = load ptr, ptr %_data, align 8
  %numThreads = getelementptr inbounds i8, ptr %1, i64 352
  %2 = load i32, ptr %numThreads, align 8
  invoke void @_ZN7Imf_3_218MultiPartInputFileC1ERNS_7IStreamEib(ptr noundef nonnull align 8 dereferenceable(16) %call, ptr noundef nonnull align 8 dereferenceable(40) %is, i32 noundef %2, i1 noundef zeroext true)
          to label %invoke.cont unwind label %lpad

invoke.cont:                                      ; preds = %entry
  %3 = load ptr, ptr %_data, align 8
  %multiPartFile = getelementptr inbounds i8, ptr %3, i64 360
  store ptr %call, ptr %multiPartFile, align 8
  %4 = load ptr, ptr %_data, align 8
  %multiPartBackwardSupport = getelementptr inbounds i8, ptr %4, i64 348
  store i8 1, ptr %multiPartBackwardSupport, align 4
  %5 = load ptr, ptr %_data, align 8
  %multiPartFile5 = getelementptr inbounds i8, ptr %5, i64 360
  %6 = load ptr, ptr %multiPartFile5, align 8
  %call6 = tail call noundef ptr @_ZN7Imf_3_218MultiPartInputFile7getPartEi(ptr noundef nonnull align 8 dereferenceable(16) %6, i32 noundef 0)
  tail call void @_ZN7Imf_3_218DeepTiledInputFile19multiPartInitializeEPNS_13InputPartDataE(ptr noundef nonnull align 8 dereferenceable(16) %this, ptr noundef %call6)
  ret void

lpad:                                             ; preds = %entry
  %7 = landingpad { ptr, i32 }
          cleanup
  tail call void @_ZdlPv(ptr noundef nonnull %call) #22
  resume { ptr, i32 } %7
}